; Function Attrs: mustprogress nofree norecurse nosync nounwind willreturn memory(read, inaccessiblemem: none) uwtable
define range(i32 0, 2) i32 @Ivy_ObjIsMuxType(ptr noundef readonly captures(none) %0) local_unnamed_addr #7 {
  %2 = getelementptr i8, ptr %0, i64 8
  %.val41 = load i32, ptr %2, align 8
  %3 = and i32 %.val41, 15
  %.not = icmp eq i32 %3, 5
  br i1 %.not, label %4, label %95

4:                                                ; preds = %1
  %5 = getelementptr i8, ptr %0, i64 16
  %.val35 = load ptr, ptr %5, align 8
  %6 = ptrtoint ptr %.val35 to i64
  %7 = and i64 %6, 1
  %.not23 = icmp eq i64 %7, 0
  br i1 %.not23, label %95, label %8

8:                                                ; preds = %4
  %9 = getelementptr i8, ptr %0, i64 24
  %.val40 = load ptr, ptr %9, align 8
  %10 = ptrtoint ptr %.val40 to i64
  %11 = and i64 %10, 1
  %.not24 = icmp eq i64 %11, 0
  br i1 %.not24, label %95, label %12

12:                                               ; preds = %8
  %13 = and i64 %6, -2
  %14 = inttoptr i64 %13 to ptr
  %15 = and i64 %10, -2
  %16 = inttoptr i64 %15 to ptr
  %17 = getelementptr i8, ptr %14, i64 8
  %.val42 = load i32, ptr %17, align 8
  %18 = and i32 %.val42, 15
  %.not72 = icmp eq i32 %18, 5
  br i1 %.not72, label %19, label %95

19:                                               ; preds = %12
  %20 = getelementptr i8, ptr %16, i64 8
  %.val43 = load i32, ptr %20, align 8
  %21 = and i32 %.val43, 15
  %.not73 = icmp eq i32 %21, 5
  br i1 %.not73, label %22, label %95

22:                                               ; preds = %19
  %23 = getelementptr i8, ptr %14, i64 16
  %.val44 = load ptr, ptr %23, align 8
  %.not.i = icmp eq ptr %.val44, null
  br i1 %.not.i, label %Ivy_ObjFaninId0.exit, label %24

24:                                               ; preds = %22
  %25 = ptrtoint ptr %.val44 to i64
  %26 = and i64 %25, -2
  %27 = inttoptr i64 %26 to ptr
  %.val.i = load i32, ptr %27, align 8
  br label %Ivy_ObjFaninId0.exit

Ivy_ObjFaninId0.exit:                             ; preds = %22, %24
  %28 = phi i32 [ %.val.i, %24 ], [ 0, %22 ]
  %29 = getelementptr i8, ptr %16, i64 16
  %.val45 = load ptr, ptr %29, align 8
  %.not.i52 = icmp eq ptr %.val45, null
  br i1 %.not.i52, label %Ivy_ObjFaninId0.exit54, label %30

30:                                               ; preds = %Ivy_ObjFaninId0.exit
  %31 = ptrtoint ptr %.val45 to i64
  %32 = and i64 %31, -2
  %33 = inttoptr i64 %32 to ptr
  %.val.i53 = load i32, ptr %33, align 8
  br label %Ivy_ObjFaninId0.exit54

Ivy_ObjFaninId0.exit54:                           ; preds = %Ivy_ObjFaninId0.exit, %30
  %34 = phi i32 [ %.val.i53, %30 ], [ 0, %Ivy_ObjFaninId0.exit ]
  %35 = icmp eq i32 %28, %34
  br i1 %35, label %36, label %41

36:                                               ; preds = %Ivy_ObjFaninId0.exit54
  %37 = ptrtoint ptr %.val44 to i64
  %38 = ptrtoint ptr %.val45 to i64
  %39 = xor i64 %38, %37
  %40 = and i64 %39, 1
  %.not27 = icmp eq i64 %40, 0
  br i1 %.not27, label %41, label %95

41:                                               ; preds = %36, %Ivy_ObjFaninId0.exit54
  br i1 %.not.i, label %Ivy_ObjFaninId0.exit57, label %42

42:                                               ; preds = %41
  %43 = ptrtoint ptr %.val44 to i64
  %44 = and i64 %43, -2
  %45 = inttoptr i64 %44 to ptr
  %.val.i56 = load i32, ptr %45, align 8
  br label %Ivy_ObjFaninId0.exit57

Ivy_ObjFaninId0.exit57:                           ; preds = %41, %42
  %46 = phi i32 [ %.val.i56, %42 ], [ 0, %41 ]
  %47 = getelementptr i8, ptr %16, i64 24
  %.val48 = load ptr, ptr %47, align 8
  %.not.i58 = icmp eq ptr %.val48, null
  br i1 %.not.i58, label %Ivy_ObjFaninId1.exit, label %48

48:                                               ; preds = %Ivy_ObjFaninId0.exit57
  %49 = ptrtoint ptr %.val48 to i64
  %50 = and i64 %49, -2
  %51 = inttoptr i64 %50 to ptr
  %.val.i59 = load i32, ptr %51, align 8
  br label %Ivy_ObjFaninId1.exit

Ivy_ObjFaninId1.exit:                             ; preds = %Ivy_ObjFaninId0.exit57, %48
  %52 = phi i32 [ %.val.i59, %48 ], [ 0, %Ivy_ObjFaninId0.exit57 ]
  %53 = icmp eq i32 %46, %52
  br i1 %53, label %54, label %59

54:                                               ; preds = %Ivy_ObjFaninId1.exit
  %55 = ptrtoint ptr %.val44 to i64
  %56 = ptrtoint ptr %.val48 to i64
  %57 = xor i64 %56, %55
  %58 = and i64 %57, 1
  %.not28 = icmp eq i64 %58, 0
  br i1 %.not28, label %59, label %95

59:                                               ; preds = %54, %Ivy_ObjFaninId1.exit
  %60 = getelementptr i8, ptr %14, i64 24
  %.val49 = load ptr, ptr %60, align 8
  %.not.i60 = icmp eq ptr %.val49, null
  br i1 %.not.i60, label %Ivy_ObjFaninId1.exit62, label %61

61:                                               ; preds = %59
  %62 = ptrtoint ptr %.val49 to i64
  %63 = and i64 %62, -2
  %64 = inttoptr i64 %63 to ptr
  %.val.i61 = load i32, ptr %64, align 8
  br label %Ivy_ObjFaninId1.exit62

Ivy_ObjFaninId1.exit62:                           ; preds = %59, %61
  %65 = phi i32 [ %.val.i61, %61 ], [ 0, %59 ]
  br i1 %.not.i52, label %Ivy_ObjFaninId0.exit65, label %66

66:                                               ; preds = %Ivy_ObjFaninId1.exit62
  %67 = ptrtoint ptr %.val45 to i64
  %68 = and i64 %67, -2
  %69 = inttoptr i64 %68 to ptr
  %.val.i64 = load i32, ptr %69, align 8
  br label %Ivy_ObjFaninId0.exit65

Ivy_ObjFaninId0.exit65:                           ; preds = %Ivy_ObjFaninId1.exit62, %66
  %70 = phi i32 [ %.val.i64, %66 ], [ 0, %Ivy_ObjFaninId1.exit62 ]
  %71 = icmp eq i32 %65, %70
  br i1 %71, label %72, label %77

72:                                               ; preds = %Ivy_ObjFaninId0.exit65
  %73 = ptrtoint ptr %.val49 to i64
  %74 = ptrtoint ptr %.val45 to i64
  %75 = xor i64 %73, %74
  %76 = and i64 %75, 1
  %.not29 = icmp eq i64 %76, 0
  br i1 %.not29, label %77, label %95

77:                                               ; preds = %72, %Ivy_ObjFaninId0.exit65
  br i1 %.not.i60, label %Ivy_ObjFaninId1.exit68, label %78

78:                                               ; preds = %77
  %79 = ptrtoint ptr %.val49 to i64
  %80 = and i64 %79, -2
  %81 = inttoptr i64 %80 to ptr
  %.val.i67 = load i32, ptr %81, align 8
  br label %Ivy_ObjFaninId1.exit68

Ivy_ObjFaninId1.exit68:                           ; preds = %77, %78
  %82 = phi i32 [ %.val.i67, %78 ], [ 0, %77 ]
  br i1 %.not.i58, label %Ivy_ObjFaninId1.exit71, label %83

83:                                               ; preds = %Ivy_ObjFaninId1.exit68
  %84 = ptrtoint ptr %.val48 to i64
  %85 = and i64 %84, -2
  %86 = inttoptr i64 %85 to ptr
  %.val.i70 = load i32, ptr %86, align 8
  br label %Ivy_ObjFaninId1.exit71

Ivy_ObjFaninId1.exit71:                           ; preds = %Ivy_ObjFaninId1.exit68, %83
  %87 = phi i32 [ %.val.i70, %83 ], [ 0, %Ivy_ObjFaninId1.exit68 ]
  %88 = icmp eq i32 %82, %87
  br i1 %88, label %89, label %95

89:                                               ; preds = %Ivy_ObjFaninId1.exit71
  %90 = ptrtoint ptr %.val49 to i64
  %91 = ptrtoint ptr %.val48 to i64
  %92 = xor i64 %90, %91
  %93 = trunc i64 %92 to i32
  %94 = and i32 %93, 1
  br label %95

95:                                               ; preds = %36, %54, %72, %89, %Ivy_ObjFaninId1.exit71, %12, %19, %4, %8, %1
  %.0 = phi i32 [ 0, %1 ], [ 0, %8 ], [ 0, %4 ], [ 0, %19 ], [ 0, %12 ], [ 1, %72 ], [ 1, %54 ], [ 1, %36 ], [ 0, %Ivy_ObjFaninId1.exit71 ], [ %94, %89 ]
  ret i32 %.0
}